target datalayout = "e-m:e-p270:32:32-p271:32:32-p272:64:64-i64:64-i128:128-f80:128-n8:16:32:64-S128"
target triple = "x86_64-pc-linux-gnu"

%class.Klass = type <{ %class.Metadata, i32, i32, i32, i32, ptr, ptr, ptr, [8 x ptr], %class.OopHandle, ptr, ptr, ptr, ptr, ptr, i32, %class.AccessFlags, i64, i64, i8, i8, i16, i16, [2 x i8], i32, [4 x i8] }>
%class.Metadata = type { ptr }
%class.OopHandle = type { ptr }
%class.AccessFlags = type { i32 }
%class.Klass.base = type <{ %class.Metadata, i32, i32, i32, i32, ptr, ptr, ptr, [8 x ptr], %class.OopHandle, ptr, ptr, ptr, ptr, ptr, i32, %class.AccessFlags, i64, i64, i8, i8, i16, i16, [2 x i8], i32 }>
%class.AbstractClassHierarchyWalker = type <{ ptr, i32, [4 x i8], [4 x ptr], i32, [4 x i8] }>
%class.InstanceKlass = type { %class.Klass.base, ptr, ptr, ptr, ptr, ptr, ptr, ptr, ptr, ptr, ptr, i32, i32, i32, i32, i16, i16, i16, i16, i8, i8, i8, i8, %class.InstanceKlassFlags, ptr, ptr, ptr, ptr, ptr, i64, ptr, ptr, ptr, ptr, ptr, ptr, ptr, ptr, ptr, ptr, ptr, ptr, ptr }
%class.InstanceKlassFlags = type <{ i16, i8, i8 }>
%class.KlassDepChange = type { %class.DepChange, ptr }
%class.DepChange = type { ptr }

; Function Attrs: mustprogress nounwind uwtable
define linkonce_odr hidden noundef zeroext i1 @_ZNK11AccessFlags11is_abstractEv(ptr noundef nonnull align 4 dereferenceable(4) %0) #1 comdat align 2 {
  %2 = alloca ptr, align 8
  store ptr %0, ptr %2, align 8
  %3 = load ptr, ptr %2, align 8
  %4 = getelementptr inbounds %class.AccessFlags, ptr %3, i32 0, i32 0
  %5 = load i32, ptr %4, align 4
  %6 = and i32 %5, 1024
  %7 = icmp ne i32 %6, 0
  ret i1 %7
}

; Function Attrs: mustprogress nounwind uwtable
define linkonce_odr hidden void @_ZN28AbstractClassHierarchyWalker15add_participantEP5Klass(ptr noundef nonnull align 8 dereferenceable(52) %0, ptr noundef %1) #1 comdat align 2 {
  %3 = alloca ptr, align 8
  %4 = alloca ptr, align 8
  %5 = alloca i32, align 4
  store ptr %0, ptr %3, align 8
  store ptr %1, ptr %4, align 8
  %6 = load ptr, ptr %3, align 8
  %7 = getelementptr inbounds %class.AbstractClassHierarchyWalker, ptr %6, i32 0, i32 4
  %8 = load i32, ptr %7, align 8
  %9 = add i32 %8, 1
  store i32 %9, ptr %7, align 8
  store i32 %8, ptr %5, align 4
  %10 = load ptr, ptr %4, align 8
  %11 = getelementptr inbounds %class.AbstractClassHierarchyWalker, ptr %6, i32 0, i32 3
  %12 = load i32, ptr %5, align 4
  %13 = zext i32 %12 to i64
  %14 = getelementptr inbounds [4 x ptr], ptr %11, i64 0, i64 %13
  store ptr %10, ptr %14, align 8
  ret void
}

; Function Attrs: mustprogress nounwind uwtable
define linkonce_odr hidden noundef zeroext i1 @_ZNK5Klass11is_abstractEv(ptr noundef nonnull align 8 dereferenceable(196) %0) #1 comdat align 2 {
  %2 = alloca ptr, align 8
  store ptr %0, ptr %2, align 8
  %3 = load ptr, ptr %2, align 8
  %4 = getelementptr inbounds %class.Klass, ptr %3, i32 0, i32 16
  %5 = call noundef zeroext i1 @_ZNK11AccessFlags11is_abstractEv(ptr noundef nonnull align 4 dereferenceable(4) %4)
  ret i1 %5
}

; Function Attrs: mustprogress nounwind uwtable
define linkonce_odr hidden noundef zeroext i1 @_ZNK18InstanceKlassFlags19is_marked_dependentEv(ptr noundef nonnull align 2 dereferenceable(3) %0) #1 comdat align 2 {
  %2 = alloca ptr, align 8
  store ptr %0, ptr %2, align 8
  %3 = load ptr, ptr %2, align 8
  %4 = getelementptr inbounds %class.InstanceKlassFlags, ptr %3, i32 0, i32 1
  %5 = load i8, ptr %4, align 2
  %6 = zext i8 %5 to i32
  %7 = and i32 %6, 16
  %8 = icmp ne i32 %7, 0
  ret i1 %8
}

; Function Attrs: mustprogress nounwind uwtable
define linkonce_odr hidden noundef ptr @_ZN13InstanceKlass4castEPK5Klass(ptr noundef %0) #1 comdat align 2 {
  %2 = alloca ptr, align 8
  store ptr %0, ptr %2, align 8
  %3 = load ptr, ptr %2, align 8
  ret ptr %3
}

; Function Attrs: mustprogress nounwind uwtable
define linkonce_odr hidden noundef zeroext i1 @_ZN28AbstractClassHierarchyWalker14record_witnessEP5Klass(ptr noundef nonnull align 8 dereferenceable(52) %0, ptr noundef %1) #1 comdat align 2 {
  %3 = alloca i1, align 1
  %4 = alloca ptr, align 8
  %5 = alloca ptr, align 8
  store ptr %0, ptr %4, align 8
  store ptr %1, ptr %5, align 8
  %6 = load ptr, ptr %4, align 8
  %7 = getelementptr inbounds %class.AbstractClassHierarchyWalker, ptr %6, i32 0, i32 1
  %8 = load i32, ptr %7, align 8
  %9 = icmp ugt i32 %8, 0
  br i1 %9, label %10, label %15

10:                                               ; preds = %2
  %11 = getelementptr inbounds %class.AbstractClassHierarchyWalker, ptr %6, i32 0, i32 1
  %12 = load i32, ptr %11, align 8
  %13 = add i32 %12, -1
  store i32 %13, ptr %11, align 8
  %14 = load ptr, ptr %5, align 8
  call void @_ZN28AbstractClassHierarchyWalker15add_participantEP5Klass(ptr noundef nonnull align 8 dereferenceable(52) %6, ptr noundef %14)
  store i1 false, ptr %3, align 1
  br label %16

15:                                               ; preds = %2
  store i1 true, ptr %3, align 1
  br label %16

16:                                               ; preds = %15, %10
  %17 = load i1, ptr %3, align 1
  ret i1 %17
}

; Function Attrs: mustprogress nounwind uwtable
define hidden noundef zeroext i1 @_ZN12Dependencies17is_concrete_klassEP5Klass(ptr noundef %0) #1 align 2 {
  %2 = alloca i1, align 1
  %3 = alloca ptr, align 8
  store ptr %0, ptr %3, align 8
  %4 = load ptr, ptr %3, align 8
  %5 = call noundef zeroext i1 @_ZNK5Klass11is_abstractEv(ptr noundef nonnull align 8 dereferenceable(196) %4)
  br i1 %5, label %6, label %7

6:                                                ; preds = %1
  store i1 false, ptr %2, align 1
  br label %8

7:                                                ; preds = %1
  store i1 true, ptr %2, align 1
  br label %8

8:                                                ; preds = %7, %6
  %9 = load i1, ptr %2, align 1
  ret i1 %9
}

; Function Attrs: mustprogress nounwind uwtable
define linkonce_odr hidden noundef zeroext i1 @_ZNK13InstanceKlass19is_marked_dependentEv(ptr noundef nonnull align 8 dereferenceable(464) %0) #1 comdat align 2 {
  %2 = alloca ptr, align 8
  store ptr %0, ptr %2, align 8
  %3 = load ptr, ptr %2, align 8
  %4 = getelementptr inbounds %class.InstanceKlass, ptr %3, i32 0, i32 23
  %5 = call noundef zeroext i1 @_ZNK18InstanceKlassFlags19is_marked_dependentEv(ptr noundef nonnull align 2 dereferenceable(3) %4)
  ret i1 %5
}

; Function Attrs: mustprogress nounwind uwtable
define linkonce_odr hidden noundef ptr @_ZN13InstanceKlass4castEP5Klass(ptr noundef %0) #1 comdat align 2 {
  %2 = alloca ptr, align 8
  store ptr %0, ptr %2, align 8
  %3 = load ptr, ptr %2, align 8
  %4 = call noundef ptr @_ZN13InstanceKlass4castEPK5Klass(ptr noundef %3)
  ret ptr %4
}

; Function Attrs: mustprogress nounwind uwtable
define linkonce_odr hidden noundef zeroext i1 @_ZNK5Klass17is_instance_klassEv(ptr noundef nonnull align 8 dereferenceable(196) %0) #1 comdat align 2 {
  %2 = alloca ptr, align 8
  store ptr %0, ptr %2, align 8
  %3 = load ptr, ptr %2, align 8
  %4 = getelementptr inbounds %class.Klass, ptr %3, i32 0, i32 2
  %5 = load i32, ptr %4, align 4
  %6 = icmp sle i32 %5, 4
  ret i1 %6
}

; Function Attrs: mustprogress nounwind uwtable
define linkonce_odr hidden noundef ptr @_ZN14KlassDepChange4typeEv(ptr noundef nonnull align 8 dereferenceable(16) %0) #1 comdat align 2 {
  %2 = alloca ptr, align 8
  store ptr %0, ptr %2, align 8
  %3 = load ptr, ptr %2, align 8
  %4 = getelementptr inbounds %class.KlassDepChange, ptr %3, i32 0, i32 1
  %5 = load ptr, ptr %4, align 8
  ret ptr %5
}

; Function Attrs: mustprogress nounwind uwtable
define hidden noundef zeroext i1 @_ZN21ConcreteSubtypeFinder10is_witnessEP5Klass(ptr noundef nonnull align 8 dereferenceable(52) %0, ptr noundef %1) #1 align 2 {
  %3 = alloca i1, align 1
  %4 = alloca ptr, align 8
  %5 = alloca ptr, align 8
  store ptr %0, ptr %4, align 8
  store ptr %1, ptr %5, align 8
  %6 = load ptr, ptr %4, align 8
  %7 = load ptr, ptr %5, align 8
  %8 = call noundef zeroext i1 @_ZN12Dependencies17is_concrete_klassEP5Klass(ptr noundef %7)
  br i1 %8, label %9, label %12

9:                                                ; preds = %2
  %10 = load ptr, ptr %5, align 8
  %11 = call noundef zeroext i1 @_ZN28AbstractClassHierarchyWalker14record_witnessEP5Klass(ptr noundef nonnull align 8 dereferenceable(52) %6, ptr noundef %10)
  store i1 %11, ptr %3, align 1
  br label %13

12:                                               ; preds = %2
  store i1 false, ptr %3, align 1
  br label %13

13:                                               ; preds = %12, %9
  %14 = load i1, ptr %3, align 1
  ret i1 %14
}

; Function Attrs: mustprogress nounwind uwtable
define hidden noundef zeroext i1 @_ZN14KlassDepChange16involves_contextEP5Klass(ptr noundef nonnull align 8 dereferenceable(16) %0, ptr noundef %1) #1 align 2 {
  %3 = alloca i1, align 1
  %4 = alloca ptr, align 8
  %5 = alloca ptr, align 8
  %6 = alloca ptr, align 8
  %7 = alloca i8, align 1
  store ptr %0, ptr %4, align 8
  store ptr %1, ptr %5, align 8
  %8 = load ptr, ptr %5, align 8
  %9 = icmp eq ptr %8, null
  br i1 %9, label %13, label %10

10:                                               ; preds = %2
  %11 = load ptr, ptr %5, align 8
  %12 = call noundef zeroext i1 @_ZNK5Klass17is_instance_klassEv(ptr noundef nonnull align 8 dereferenceable(196) %11)
  br i1 %12, label %14, label %13

13:                                               ; preds = %10, %2
  store i1 false, ptr %3, align 1
  br label %22

14:                                               ; preds = %10
  %15 = load ptr, ptr %5, align 8
  %16 = call noundef ptr @_ZN13InstanceKlass4castEP5Klass(ptr noundef %15)
  store ptr %16, ptr %6, align 8
  %17 = load ptr, ptr %6, align 8
  %18 = call noundef zeroext i1 @_ZNK13InstanceKlass19is_marked_dependentEv(ptr noundef nonnull align 8 dereferenceable(464) %17)
  %19 = zext i1 %18 to i8
  store i8 %19, ptr %7, align 1
  %20 = load i8, ptr %7, align 1
  %21 = trunc i8 %20 to i1
  store i1 %21, ptr %3, align 1
  br label %22

22:                                               ; preds = %14, %13
  %23 = load i1, ptr %3, align 1
  ret i1 %23
}

; Function Attrs: mustprogress nounwind uwtable
define linkonce_odr hidden noundef ptr @_ZN28AbstractClassHierarchyWalker11participantEj(ptr noundef nonnull align 8 dereferenceable(52) %0, i32 noundef %1) #1 comdat align 2 {
  %3 = alloca ptr, align 8
  %4 = alloca ptr, align 8
  %5 = alloca i32, align 4
  store ptr %0, ptr %4, align 8
  store i32 %1, ptr %5, align 4
  %6 = load ptr, ptr %4, align 8
  %7 = load i32, ptr %5, align 4
  %8 = getelementptr inbounds %class.AbstractClassHierarchyWalker, ptr %6, i32 0, i32 4
  %9 = load i32, ptr %8, align 8
  %10 = icmp ult i32 %7, %9
  br i1 %10, label %11, label %17

11:                                               ; preds = %2
  %12 = getelementptr inbounds %class.AbstractClassHierarchyWalker, ptr %6, i32 0, i32 3
  %13 = load i32, ptr %5, align 4
  %14 = zext i32 %13 to i64
  %15 = getelementptr inbounds [4 x ptr], ptr %12, i64 0, i64 %14
  %16 = load ptr, ptr %15, align 8
  store ptr %16, ptr %3, align 8
  br label %18

17:                                               ; preds = %2
  store ptr null, ptr %3, align 8
  br label %18

18:                                               ; preds = %17, %11
  %19 = load ptr, ptr %3, align 8
  ret ptr %19
}

; Function Attrs: mustprogress nounwind uwtable
define linkonce_odr hidden noundef i32 @_ZN28AbstractClassHierarchyWalker16num_participantsEv(ptr noundef nonnull align 8 dereferenceable(52) %0) #1 comdat align 2 {
  %2 = alloca ptr, align 8
  store ptr %0, ptr %2, align 8
  %3 = load ptr, ptr %2, align 8
  %4 = getelementptr inbounds %class.AbstractClassHierarchyWalker, ptr %3, i32 0, i32 4
  %5 = load i32, ptr %4, align 8
  ret i32 %5
}

; Function Attrs: mustprogress nounwind uwtable
define linkonce_odr hidden noundef ptr @_ZN17NewKlassDepChange8new_typeEv(ptr noundef nonnull align 8 dereferenceable(16) %0) #1 comdat align 2 {
  %2 = alloca ptr, align 8
  store ptr %0, ptr %2, align 8
  %3 = load ptr, ptr %2, align 8
  %4 = call noundef ptr @_ZN14KlassDepChange4typeEv(ptr noundef nonnull align 8 dereferenceable(16) %3)
  ret ptr %4
}

; Function Attrs: mustprogress nounwind uwtable
define linkonce_odr hidden noundef ptr @_ZN9DepChange19as_new_klass_changeEv(ptr noundef nonnull align 8 dereferenceable(8) %0) #1 comdat align 2 {
  %2 = alloca ptr, align 8
  store ptr %0, ptr %2, align 8
  %3 = load ptr, ptr %2, align 8
  ret ptr %3
}

; Function Attrs: mustprogress nounwind uwtable
define hidden noundef ptr @_ZN21ConcreteSubtypeFinder15find_witness_inER14KlassDepChange(ptr noundef nonnull align 8 dereferenceable(52) %0, ptr noundef nonnull align 8 dereferenceable(16) %1) unnamed_addr #1 align 2 {
  %3 = alloca ptr, align 8
  %4 = alloca ptr, align 8
  %5 = alloca ptr, align 8
  %6 = alloca ptr, align 8
  %7 = alloca i32, align 4
  store ptr %0, ptr %4, align 8
  store ptr %1, ptr %5, align 8
  %8 = load ptr, ptr %4, align 8
  %9 = load ptr, ptr %5, align 8
  %10 = call noundef ptr @_ZN9DepChange19as_new_klass_changeEv(ptr noundef nonnull align 8 dereferenceable(8) %9)
  %11 = call noundef ptr @_ZN17NewKlassDepChange8new_typeEv(ptr noundef nonnull align 8 dereferenceable(16) %10)
  store ptr %11, ptr %6, align 8
  store i32 0, ptr %7, align 4
  br label %12

12:                                               ; preds = %23, %2
  %13 = load i32, ptr %7, align 4
  %14 = call noundef i32 @_ZN28AbstractClassHierarchyWalker16num_participantsEv(ptr noundef nonnull align 8 dereferenceable(52) %8)
  %15 = icmp ult i32 %13, %14
  br i1 %15, label %16, label %26

16:                                               ; preds = %12
  %17 = load ptr, ptr %5, align 8
  %18 = load i32, ptr %7, align 4
  %19 = call noundef ptr @_ZN28AbstractClassHierarchyWalker11participantEj(ptr noundef nonnull align 8 dereferenceable(52) %8, i32 noundef %18)
  %20 = call noundef zeroext i1 @_ZN14KlassDepChange16involves_contextEP5Klass(ptr noundef nonnull align 8 dereferenceable(16) %17, ptr noundef %19)
  br i1 %20, label %21, label %22

21:                                               ; preds = %16
  store ptr null, ptr %3, align 8
  br label %32

22:                                               ; preds = %16
  br label %23

23:                                               ; preds = %22
  %24 = load i32, ptr %7, align 4
  %25 = add i32 %24, 1
  store i32 %25, ptr %7, align 4
  br label %12, !llvm.loop !38

26:                                               ; preds = %12
  %27 = load ptr, ptr %6, align 8
  %28 = call noundef zeroext i1 @_ZN21ConcreteSubtypeFinder10is_witnessEP5Klass(ptr noundef nonnull align 8 dereferenceable(52) %8, ptr noundef %27)
  br i1 %28, label %29, label %31

29:                                               ; preds = %26
  %30 = load ptr, ptr %6, align 8
  store ptr %30, ptr %3, align 8
  br label %32

31:                                               ; preds = %26
  store ptr null, ptr %3, align 8
  br label %32

32:                                               ; preds = %31, %29, %21
  %33 = load ptr, ptr %3, align 8
  ret ptr %33
}