; Function Attrs: mustprogress nofree norecurse nosync nounwind memory(read, argmem: readwrite, inaccessiblemem: none) uwtable
define hidden noundef ptr @_ZN21ConcreteSubtypeFinder15find_witness_inER14KlassDepChange(ptr nocapture noundef nonnull align 8 dereferenceable(52) %0, ptr nocapture noundef nonnull readonly align 8 dereferenceable(16) %1) unnamed_addr #9 align 2 {
  %3 = getelementptr inbounds i8, ptr %1, i64 8
  %4 = load ptr, ptr %3, align 8
  %5 = getelementptr inbounds i8, ptr %0, i64 48
  %6 = load i32, ptr %5, align 8
  %.not17 = icmp eq i32 %6, 0
  br i1 %.not17, label %._crit_edge, label %_ZN28AbstractClassHierarchyWalker11participantEj.exit.lr.ph

_ZN28AbstractClassHierarchyWalker11participantEj.exit.lr.ph: ; preds = %2
  %7 = getelementptr inbounds i8, ptr %0, i64 16
  %wide.trip.count = zext i32 %6 to i64
  br label %_ZN28AbstractClassHierarchyWalker11participantEj.exit

_ZN28AbstractClassHierarchyWalker11participantEj.exit: ; preds = %_ZN28AbstractClassHierarchyWalker11participantEj.exit.lr.ph, %_ZN14KlassDepChange16involves_contextEP5Klass.exit.thread
  %indvars.iv = phi i64 [ 0, %_ZN28AbstractClassHierarchyWalker11participantEj.exit.lr.ph ], [ %indvars.iv.next, %_ZN14KlassDepChange16involves_contextEP5Klass.exit.thread ]
  %8 = getelementptr inbounds [4 x ptr], ptr %7, i64 0, i64 %indvars.iv
  %9 = load ptr, ptr %8, align 8
  %10 = icmp eq ptr %9, null
  br i1 %10, label %_ZN14KlassDepChange16involves_contextEP5Klass.exit.thread, label %11

11:                                               ; preds = %_ZN28AbstractClassHierarchyWalker11participantEj.exit
  %12 = getelementptr inbounds i8, ptr %9, i64 12
  %13 = load i32, ptr %12, align 4
  %14 = icmp slt i32 %13, 5
  br i1 %14, label %_ZN14KlassDepChange16involves_contextEP5Klass.exit, label %_ZN14KlassDepChange16involves_contextEP5Klass.exit.thread

_ZN14KlassDepChange16involves_contextEP5Klass.exit: ; preds = %11
  %15 = getelementptr inbounds i8, ptr %9, i64 310
  %16 = load i8, ptr %15, align 2
  %17 = and i8 %16, 16
  %.not = icmp eq i8 %17, 0
  br i1 %.not, label %_ZN14KlassDepChange16involves_contextEP5Klass.exit.thread, label %_ZN21ConcreteSubtypeFinder10is_witnessEP5Klass.exit

_ZN14KlassDepChange16involves_contextEP5Klass.exit.thread: ; preds = %_ZN28AbstractClassHierarchyWalker11participantEj.exit, %11, %_ZN14KlassDepChange16involves_contextEP5Klass.exit
  %indvars.iv.next = add nuw nsw i64 %indvars.iv, 1
  %exitcond.not = icmp eq i64 %indvars.iv.next, %wide.trip.count
  br i1 %exitcond.not, label %._crit_edge, label %_ZN28AbstractClassHierarchyWalker11participantEj.exit, !llvm.loop !47

._crit_edge:                                      ; preds = %_ZN14KlassDepChange16involves_contextEP5Klass.exit.thread, %2
  %18 = getelementptr inbounds i8, ptr %4, i64 164
  %19 = load i32, ptr %18, align 4
  %20 = and i32 %19, 1024
  %.not.i.i = icmp eq i32 %20, 0
  br i1 %.not.i.i, label %21, label %_ZN21ConcreteSubtypeFinder10is_witnessEP5Klass.exit

21:                                               ; preds = %._crit_edge
  %22 = getelementptr inbounds i8, ptr %0, i64 8
  %23 = load i32, ptr %22, align 8
  %.not.i4.i = icmp eq i32 %23, 0
  br i1 %.not.i4.i, label %_ZN21ConcreteSubtypeFinder10is_witnessEP5Klass.exit, label %24

24:                                               ; preds = %21
  %25 = add i32 %23, -1
  store i32 %25, ptr %22, align 8
  %26 = add i32 %6, 1
  store i32 %26, ptr %5, align 8
  %27 = getelementptr inbounds i8, ptr %0, i64 16
  %28 = zext i32 %6 to i64
  %29 = getelementptr inbounds [4 x ptr], ptr %27, i64 0, i64 %28
  store ptr %4, ptr %29, align 8
  br label %_ZN21ConcreteSubtypeFinder10is_witnessEP5Klass.exit

_ZN21ConcreteSubtypeFinder10is_witnessEP5Klass.exit: ; preds = %_ZN14KlassDepChange16involves_contextEP5Klass.exit, %24, %._crit_edge, %21
  %.08 = phi ptr [ %4, %21 ], [ null, %._crit_edge ], [ null, %24 ], [ null, %_ZN14KlassDepChange16involves_contextEP5Klass.exit ]
  ret ptr %.08
}